target datalayout = "e-m:e-p270:32:32-p271:32:32-p272:64:64-i64:64-i128:128-f80:128-n8:16:32:64-S128"
target triple = "x86_64-pc-linux-gnu"

@hf_vsncp_opt_type = internal global i32 0, align 4
@hf_vsncp_opt_length = internal global i32 0, align 4
@hf_vsncp_protocol = internal global i32 0, align 4
@hf_vsncp_protocol_configuration_length = internal global i32 0, align 4
@hf_vsncp_protocol_configuration_data = internal global i32 0, align 4
@ett_vsncp_pco_opt = internal global i32 0, align 4
@proto_vsncp_option_pco = internal global i32 0, align 4
@.str.1295 = private unnamed_addr constant [8 x i8] c"%s (%u)\00", align 1

; Function Attrs: null_pointer_is_valid sspstrong uwtable
define internal void @dissect_vsncp_opt_type_len(ptr noundef %0, i32 noundef %1, ptr noundef %2, ptr noundef %3) #1 {
  %5 = alloca ptr, align 8
  %6 = alloca i32, align 4
  %7 = alloca ptr, align 8
  %8 = alloca ptr, align 8
  %9 = alloca i8, align 1
  store ptr %0, ptr %5, align 8
  store i32 %1, ptr %6, align 4
  store ptr %2, ptr %7, align 8
  store ptr %3, ptr %8, align 8
  call void @llvm.lifetime.start.p0(i64 1, ptr %9) #6
  %10 = load ptr, ptr %5, align 8
  %11 = load i32, ptr %6, align 4
  %12 = call zeroext i8 @tvb_get_uint8(ptr noundef %10, i32 noundef %11)
  store i8 %12, ptr %9, align 1
  %13 = load ptr, ptr %7, align 8
  %14 = load i32, ptr @hf_vsncp_opt_type, align 4
  %15 = load ptr, ptr %5, align 8
  %16 = load i32, ptr %6, align 4
  %17 = load i8, ptr %9, align 1
  %18 = zext i8 %17 to i32
  %19 = load ptr, ptr %8, align 8
  %20 = load i8, ptr %9, align 1
  %21 = zext i8 %20 to i32
  %22 = call ptr (ptr, i32, ptr, i32, i32, i32, ptr, ...) @proto_tree_add_uint_format_value(ptr noundef %13, i32 noundef %14, ptr noundef %15, i32 noundef %16, i32 noundef 1, i32 noundef %18, ptr noundef @.str.1295, ptr noundef %19, i32 noundef %21)
  %23 = load ptr, ptr %7, align 8
  %24 = load i32, ptr @hf_vsncp_opt_length, align 4
  %25 = load ptr, ptr %5, align 8
  %26 = load i32, ptr %6, align 4
  %27 = add i32 %26, 1
  %28 = call ptr @proto_tree_add_item(ptr noundef %23, i32 noundef %24, ptr noundef %25, i32 noundef %27, i32 noundef 1, i32 noundef 0)
  call void @llvm.lifetime.end.p0(i64 1, ptr %9) #6
  ret void
}

; Function Attrs: null_pointer_is_valid sspstrong uwtable
define internal i32 @dissect_vsncp_pco_opt(ptr noundef %0, ptr noundef %1, ptr noundef %2, ptr noundef %3) #1 {
  %5 = alloca ptr, align 8
  %6 = alloca ptr, align 8
  %7 = alloca ptr, align 8
  %8 = alloca ptr, align 8
  %9 = alloca i8, align 1
  %10 = alloca ptr, align 8
  %11 = alloca ptr, align 8
  %12 = alloca i32, align 4
  %13 = alloca i32, align 4
  %14 = alloca i8, align 1
  store ptr %0, ptr %5, align 8
  store ptr %1, ptr %6, align 8
  store ptr %2, ptr %7, align 8
  store ptr %3, ptr %8, align 8
  call void @llvm.lifetime.start.p0(i64 1, ptr %9) #6
  call void @llvm.lifetime.start.p0(i64 8, ptr %10) #6
  call void @llvm.lifetime.start.p0(i64 8, ptr %11) #6
  call void @llvm.lifetime.start.p0(i64 4, ptr %12) #6
  %15 = load ptr, ptr %5, align 8
  %16 = call i32 @tvb_reported_length(ptr noundef %15)
  store i32 %16, ptr %12, align 4
  call void @llvm.lifetime.start.p0(i64 4, ptr %13) #6
  store i32 3, ptr %13, align 4
  call void @llvm.lifetime.start.p0(i64 1, ptr %14) #6
  store i8 0, ptr %14, align 1
  %17 = load ptr, ptr %7, align 8
  %18 = load i32, ptr @proto_vsncp_option_pco, align 4
  %19 = load ptr, ptr %5, align 8
  %20 = load i32, ptr %12, align 4
  %21 = call ptr @proto_tree_add_item(ptr noundef %17, i32 noundef %18, ptr noundef %19, i32 noundef 0, i32 noundef %20, i32 noundef 0)
  store ptr %21, ptr %11, align 8
  %22 = load ptr, ptr %11, align 8
  %23 = load i32, ptr @ett_vsncp_pco_opt, align 4
  %24 = call ptr @proto_item_add_subtree(ptr noundef %22, i32 noundef %23)
  store ptr %24, ptr %10, align 8
  %25 = load ptr, ptr %5, align 8
  %26 = load ptr, ptr %10, align 8
  %27 = load i32, ptr @proto_vsncp_option_pco, align 4
  %28 = call ptr @proto_registrar_get_name(i32 noundef %27)
  call void @dissect_vsncp_opt_type_len(ptr noundef %25, i32 noundef 0, ptr noundef %26, ptr noundef %28)
  br label %29

29:                                               ; preds = %63, %4
  %30 = load i8, ptr %14, align 1
  %31 = zext i8 %30 to i32
  %32 = load i32, ptr %12, align 4
  %33 = sub i32 %32, 3
  %34 = icmp slt i32 %31, %33
  br i1 %34, label %35, label %76

35:                                               ; preds = %29
  %36 = load ptr, ptr %5, align 8
  %37 = load i32, ptr %13, align 4
  %38 = add i32 %37, 2
  %39 = call zeroext i8 @tvb_get_uint8(ptr noundef %36, i32 noundef %38)
  store i8 %39, ptr %9, align 1
  %40 = load ptr, ptr %10, align 8
  %41 = load i32, ptr @hf_vsncp_protocol, align 4
  %42 = load ptr, ptr %5, align 8
  %43 = load i32, ptr %13, align 4
  %44 = call ptr @proto_tree_add_item(ptr noundef %40, i32 noundef %41, ptr noundef %42, i32 noundef %43, i32 noundef 2, i32 noundef 0)
  %45 = load ptr, ptr %10, align 8
  %46 = load i32, ptr @hf_vsncp_protocol_configuration_length, align 4
  %47 = load ptr, ptr %5, align 8
  %48 = load i32, ptr %13, align 4
  %49 = add i32 %48, 2
  %50 = call ptr @proto_tree_add_item(ptr noundef %45, i32 noundef %46, ptr noundef %47, i32 noundef %49, i32 noundef 1, i32 noundef 0)
  %51 = load i8, ptr %9, align 1
  %52 = zext i8 %51 to i32
  %53 = icmp sgt i32 %52, 0
  br i1 %53, label %54, label %63

54:                                               ; preds = %35
  %55 = load ptr, ptr %10, align 8
  %56 = load i32, ptr @hf_vsncp_protocol_configuration_data, align 4
  %57 = load ptr, ptr %5, align 8
  %58 = load i32, ptr %13, align 4
  %59 = add i32 %58, 3
  %60 = load i8, ptr %9, align 1
  %61 = zext i8 %60 to i32
  %62 = call ptr @proto_tree_add_item(ptr noundef %55, i32 noundef %56, ptr noundef %57, i32 noundef %59, i32 noundef %61, i32 noundef 0)
  br label %63

63:                                               ; preds = %54, %35
  %64 = load i8, ptr %9, align 1
  %65 = zext i8 %64 to i32
  %66 = add i32 3, %65
  %67 = load i32, ptr %13, align 4
  %68 = add i32 %67, %66
  store i32 %68, ptr %13, align 4
  %69 = load i8, ptr %9, align 1
  %70 = zext i8 %69 to i32
  %71 = add i32 3, %70
  %72 = load i8, ptr %14, align 1
  %73 = zext i8 %72 to i32
  %74 = add i32 %73, %71
  %75 = trunc i32 %74 to i8
  store i8 %75, ptr %14, align 1
  br label %29, !llvm.loop !14

76:                                               ; preds = %29
  %77 = load ptr, ptr %5, align 8
  %78 = call i32 @tvb_captured_length(ptr noundef %77)
  call void @llvm.lifetime.end.p0(i64 1, ptr %14) #6
  call void @llvm.lifetime.end.p0(i64 4, ptr %13) #6
  call void @llvm.lifetime.end.p0(i64 4, ptr %12) #6
  call void @llvm.lifetime.end.p0(i64 8, ptr %11) #6
  call void @llvm.lifetime.end.p0(i64 8, ptr %10) #6
  call void @llvm.lifetime.end.p0(i64 1, ptr %9) #6
  ret i32 %78
}