; Function Attrs: null_pointer_is_valid sspstrong uwtable
define internal i32 @dissect_vsncp_pco_opt(ptr noundef %0, ptr readnone captures(none) %1, ptr noundef %2, ptr readnone captures(none) %3) #1 {
  %5 = tail call i32 @tvb_reported_length(ptr noundef %0)
  %6 = load i32, ptr @proto_vsncp_option_pco, align 4
  %7 = tail call ptr @proto_tree_add_item(ptr noundef %2, i32 noundef %6, ptr noundef %0, i32 noundef 0, i32 noundef %5, i32 noundef 0)
  %8 = load i32, ptr @ett_vsncp_pco_opt, align 4
  %9 = tail call ptr @proto_item_add_subtree(ptr noundef %7, i32 noundef %8)
  %10 = load i32, ptr @proto_vsncp_option_pco, align 4
  %11 = tail call ptr @proto_registrar_get_name(i32 noundef %10)
  %12 = tail call zeroext i8 @tvb_get_uint8(ptr noundef %0, i32 noundef 0)
  %13 = load i32, ptr @hf_vsncp_opt_type, align 4
  %14 = zext i8 %12 to i32
  %15 = tail call ptr (ptr, i32, ptr, i32, i32, i32, ptr, ...) @proto_tree_add_uint_format_value(ptr noundef %9, i32 noundef %13, ptr noundef %0, i32 noundef 0, i32 noundef 1, i32 noundef %14, ptr noundef nonnull @.str.1295, ptr noundef %11, i32 noundef %14)
  %16 = load i32, ptr @hf_vsncp_opt_length, align 4
  %17 = tail call ptr @proto_tree_add_item(ptr noundef %9, i32 noundef %16, ptr noundef %0, i32 noundef 1, i32 noundef 1, i32 noundef 0)
  %18 = add i32 %5, -3
  %19 = icmp sgt i32 %18, 0
  br i1 %19, label %.lr.ph, label %._crit_edge

.lr.ph:                                           ; preds = %4, %32
  %20 = phi i32 [ %36, %32 ], [ 0, %4 ]
  %.02629 = phi i32 [ %34, %32 ], [ 3, %4 ]
  %21 = add i32 %.02629, 2
  %22 = tail call zeroext i8 @tvb_get_uint8(ptr noundef %0, i32 noundef %21)
  %23 = load i32, ptr @hf_vsncp_protocol, align 4
  %24 = tail call ptr @proto_tree_add_item(ptr noundef %9, i32 noundef %23, ptr noundef %0, i32 noundef %.02629, i32 noundef 2, i32 noundef 0)
  %25 = load i32, ptr @hf_vsncp_protocol_configuration_length, align 4
  %26 = tail call ptr @proto_tree_add_item(ptr noundef %9, i32 noundef %25, ptr noundef %0, i32 noundef %21, i32 noundef 1, i32 noundef 0)
  %27 = zext i8 %22 to i32
  %.not = icmp eq i8 %22, 0
  br i1 %.not, label %32, label %28

28:                                               ; preds = %.lr.ph
  %29 = load i32, ptr @hf_vsncp_protocol_configuration_data, align 4
  %30 = add i32 %.02629, 3
  %31 = tail call ptr @proto_tree_add_item(ptr noundef %9, i32 noundef %29, ptr noundef %0, i32 noundef %30, i32 noundef %27, i32 noundef 0)
  br label %32

32:                                               ; preds = %28, %.lr.ph
  %33 = add nuw nsw i32 %27, 3
  %34 = add i32 %33, %.02629
  %35 = add nuw nsw i32 %33, %20
  %36 = and i32 %35, 255
  %37 = icmp samesign ult i32 %36, %18
  br i1 %37, label %.lr.ph, label %._crit_edge, !llvm.loop !15

._crit_edge:                                      ; preds = %32, %4
  %38 = tail call i32 @tvb_captured_length(ptr noundef %0)
  ret i32 %38
}